target datalayout = "e-m:e-p270:32:32-p271:32:32-p272:64:64-i64:64-i128:128-f80:128-n8:16:32:64-S128"
target triple = "x86_64-pc-linux-gnu"

%class.JfrDCmd = type <{ %class.DCmd.base, [7 x i8], ptr, i32, i8, [3 x i8] }>
%class.DCmd.base = type <{ ptr, ptr, i8 }>
%class.DCmd = type <{ ptr, ptr, i8, [7 x i8] }>
%class.JavaValue = type { i8, %"union.JavaValue::JavaCallValue" }
%"union.JavaValue::JavaCallValue" = type { double }
%class.JfrJavaArguments = type <{ %"class.JfrJavaArguments::Parameters", ptr, ptr, ptr, ptr, i32, [4 x i8] }>
%"class.JfrJavaArguments::Parameters" = type { [16 x %class.JavaValue], i32, i32 }
%class.ThreadShadow = type <{ ptr, ptr, ptr, i32, [4 x i8] }>

@.str = private unnamed_addr constant [5 x i8] c"help\00", align 1
@.str.4 = private unnamed_addr constant [15 x i8] c"getStartupHelp\00", align 1
@_ZZN7JfrDCmd7executeE10DCmdSourceP10JavaThreadE9signature = internal constant [59 x i8] c"(Ljava/lang/String;Ljava/lang/String;C)[Ljava/lang/String;\00", align 16
@.str.5 = private unnamed_addr constant [8 x i8] c"execute\00", align 1
@.str.6 = private unnamed_addr constant [9 x i8] c"internal\00", align 1
@.str.7 = private unnamed_addr constant [6 x i8] c"mbean\00", align 1
@.str.8 = private unnamed_addr constant [7 x i8] c"attach\00", align 1
@_ZZNK7JfrDCmd15print_java_helpEPKcE9signature = internal constant [22 x i8] c"()[Ljava/lang/String;\00", align 16
@_ZN6Thread12_thr_currentE = external thread_local global ptr, align 8

; Function Attrs: mustprogress nounwind uwtable
define linkonce_odr hidden noundef ptr @_ZN6Thread15current_or_nullEv() #1 comdat align 2 {
  %1 = call align 8 ptr @llvm.threadlocal.address.p0(ptr align 8 @_ZN6Thread12_thr_currentE)
  %2 = load ptr, ptr %1, align 8
  ret ptr %2
}

; Function Attrs: mustprogress nounwind uwtable
define linkonce_odr hidden noundef ptr @_ZN10JavaThread4castEP6Thread(ptr noundef %0) #1 comdat align 2 {
  %2 = alloca ptr, align 8
  store ptr %0, ptr %2, align 8
  %3 = load ptr, ptr %2, align 8
  ret ptr %3
}

; Function Attrs: mustprogress nounwind uwtable
define linkonce_odr hidden noundef ptr @_ZN6Thread7currentEv() #1 comdat align 2 {
  %1 = alloca ptr, align 8
  %2 = call noundef ptr @_ZN6Thread15current_or_nullEv()
  store ptr %2, ptr %1, align 8
  %3 = load ptr, ptr %1, align 8
  ret ptr %3
}

; Function Attrs: mustprogress nounwind uwtable
define linkonce_odr hidden noundef ptr @_ZN10JavaThread7currentEv() #1 comdat align 2 {
  %1 = call noundef ptr @_ZN6Thread7currentEv()
  %2 = call noundef ptr @_ZN10JavaThread4castEP6Thread(ptr noundef %1)
  ret ptr %2
}

; Function Attrs: mustprogress nounwind uwtable
define linkonce_odr hidden noundef ptr @_ZNK9JavaValue7get_oopEv(ptr noundef nonnull align 8 dereferenceable(16) %0) #1 comdat align 2 {
  %2 = alloca ptr, align 8
  store ptr %0, ptr %2, align 8
  %3 = load ptr, ptr %2, align 8
  %4 = getelementptr inbounds %class.JavaValue, ptr %3, i32 0, i32 1
  %5 = load ptr, ptr %4, align 8
  ret ptr %5
}

; Function Attrs: mustprogress nounwind uwtable
define linkonce_odr hidden noundef zeroext i1 @_ZNK12ThreadShadow21has_pending_exceptionEv(ptr noundef nonnull align 8 dereferenceable(28) %0) #1 comdat align 2 {
  %2 = alloca ptr, align 8
  store ptr %0, ptr %2, align 8
  %3 = load ptr, ptr %2, align 8
  %4 = getelementptr inbounds %class.ThreadShadow, ptr %3, i32 0, i32 1
  %5 = load ptr, ptr %4, align 8
  %6 = icmp ne ptr %5, null
  ret i1 %6
}

; Function Attrs: mustprogress nounwind uwtable
define linkonce_odr hidden void @_ZN9JavaValueC2E9BasicType(ptr noundef nonnull align 8 dereferenceable(16) %0, i8 noundef zeroext %1) unnamed_addr #1 comdat align 2 {
  %3 = alloca ptr, align 8
  %4 = alloca i8, align 1
  store ptr %0, ptr %3, align 8
  store i8 %1, ptr %4, align 1
  %5 = load ptr, ptr %3, align 8
  %6 = load i8, ptr %4, align 1
  %7 = getelementptr inbounds %class.JavaValue, ptr %5, i32 0, i32 0
  store i8 %6, ptr %7, align 8
  ret void
}

; Function Attrs: mustprogress nounwind uwtable
define hidden void @_ZNK7JfrDCmd15print_java_helpEPKc(ptr noundef nonnull align 8 dereferenceable(37) %0, ptr noundef %1) #1 align 2 {
  %3 = alloca ptr, align 8
  %4 = alloca ptr, align 8
  %5 = alloca ptr, align 8
  %6 = alloca %class.JavaValue, align 8
  %7 = alloca %class.JfrJavaArguments, align 8
  store ptr %0, ptr %3, align 8
  store ptr %1, ptr %4, align 8
  %8 = load ptr, ptr %3, align 8
  %9 = call noundef ptr @_ZN10JavaThread7currentEv()
  store ptr %9, ptr %5, align 8
  call void @_ZN9JavaValueC2E9BasicType(ptr noundef nonnull align 8 dereferenceable(16) %6, i8 noundef zeroext 12)
  %10 = load ptr, ptr %8, align 8
  %11 = getelementptr inbounds ptr, ptr %10, i64 7
  %12 = load ptr, ptr %11, align 8
  %13 = call noundef ptr %12(ptr noundef nonnull align 8 dereferenceable(37) %8)
  %14 = load ptr, ptr %4, align 8
  %15 = load ptr, ptr %5, align 8
  call void @_ZN16JfrJavaArgumentsC1EP9JavaValuePKcS3_S3_P10JavaThread(ptr noundef nonnull align 8 dereferenceable(300) %7, ptr noundef %6, ptr noundef %13, ptr noundef %14, ptr noundef @_ZZNK7JfrDCmd15print_java_helpEPKcE9signature, ptr noundef %15)
  %16 = load ptr, ptr %5, align 8
  call void @_ZNK7JfrDCmd6invokeER16JfrJavaArgumentsP10JavaThread(ptr noundef nonnull align 8 dereferenceable(37) %8, ptr noundef nonnull align 8 dereferenceable(300) %7, ptr noundef %16)
  %17 = call noundef ptr @_ZNK4DCmd6outputEv(ptr noundef nonnull align 8 dereferenceable(17) %8)
  %18 = call noundef ptr @_ZNK9JavaValue7get_oopEv(ptr noundef nonnull align 8 dereferenceable(16) %6)
  %19 = load ptr, ptr %5, align 8
  call void @_ZL18handle_dcmd_resultP12outputStreamP7oopDesc10DCmdSourceP10JavaThread(ptr noundef %17, ptr noundef %18, i32 noundef 4, ptr noundef %19)
  ret void
}

; Function Attrs: mustprogress nounwind uwtable
define linkonce_odr hidden noundef ptr @_ZNK4DCmd6outputEv(ptr noundef nonnull align 8 dereferenceable(17) %0) #1 comdat align 2 {
  %2 = alloca ptr, align 8
  store ptr %0, ptr %2, align 8
  %3 = load ptr, ptr %2, align 8
  %4 = getelementptr inbounds %class.DCmd, ptr %3, i32 0, i32 1
  %5 = load ptr, ptr %4, align 8
  ret ptr %5
}

; Function Attrs: mustprogress nounwind uwtable
define hidden void @_ZN7JfrDCmd7executeE10DCmdSourceP10JavaThread(ptr noundef nonnull align 8 dereferenceable(37) %0, i32 noundef %1, ptr noundef %2) unnamed_addr #1 align 2 {
  %4 = alloca ptr, align 8
  %5 = alloca i32, align 4
  %6 = alloca ptr, align 8
  %7 = alloca %class.JavaValue, align 8
  %8 = alloca %class.JfrJavaArguments, align 8
  %9 = alloca ptr, align 8
  %10 = alloca ptr, align 8
  store ptr %0, ptr %4, align 8
  store i32 %1, ptr %5, align 4
  store ptr %2, ptr %6, align 8
  %11 = load ptr, ptr %4, align 8
  %12 = call noundef ptr @_ZNK4DCmd6outputEv(ptr noundef nonnull align 8 dereferenceable(17) %11)
  %13 = load ptr, ptr %6, align 8
  %14 = call noundef zeroext i1 @_ZL13invalid_stateP12outputStreamP10JavaThread(ptr noundef %12, ptr noundef %13)
  br i1 %14, label %15, label %16

15:                                               ; preds = %3
  br label %87

16:                                               ; preds = %3
  %17 = load i32, ptr %5, align 4
  %18 = icmp eq i32 %17, 1
  br i1 %18, label %19, label %29

19:                                               ; preds = %16
  %20 = getelementptr inbounds %class.JfrDCmd, ptr %11, i32 0, i32 2
  %21 = load ptr, ptr %20, align 8
  %22 = icmp ne ptr %21, null
  br i1 %22, label %23, label %29

23:                                               ; preds = %19
  %24 = getelementptr inbounds %class.JfrDCmd, ptr %11, i32 0, i32 2
  %25 = load ptr, ptr %24, align 8
  %26 = call i32 @strcmp(ptr noundef %25, ptr noundef @.str) #10
  %27 = icmp eq i32 %26, 0
  br i1 %27, label %28, label %29

28:                                               ; preds = %23
  call void @_ZNK7JfrDCmd15print_java_helpEPKc(ptr noundef nonnull align 8 dereferenceable(37) %11, ptr noundef @.str.4)
  call void @_Z7vm_exiti(i32 noundef 0)
  br label %29

29:                                               ; preds = %28, %23, %19, %16
  call void @_ZN9JavaValueC2E9BasicType(ptr noundef nonnull align 8 dereferenceable(16) %7, i8 noundef zeroext 12)
  %30 = load ptr, ptr %11, align 8
  %31 = getelementptr inbounds ptr, ptr %30, i64 7
  %32 = load ptr, ptr %31, align 8
  %33 = call noundef ptr %32(ptr noundef nonnull align 8 dereferenceable(37) %11)
  %34 = load ptr, ptr %6, align 8
  call void @_ZN16JfrJavaArgumentsC1EP9JavaValuePKcS3_S3_P10JavaThread(ptr noundef nonnull align 8 dereferenceable(300) %8, ptr noundef %7, ptr noundef %33, ptr noundef @.str.5, ptr noundef @_ZZN7JfrDCmd7executeE10DCmdSourceP10JavaThreadE9signature, ptr noundef %34)
  %35 = load ptr, ptr %6, align 8
  %36 = call noundef zeroext i1 @_ZNK12ThreadShadow21has_pending_exceptionEv(ptr noundef nonnull align 8 dereferenceable(28) %35)
  br i1 %36, label %37, label %38

37:                                               ; preds = %29
  br label %87

38:                                               ; preds = %29
  %39 = getelementptr inbounds %class.JfrDCmd, ptr %11, i32 0, i32 2
  %40 = load ptr, ptr %39, align 8
  %41 = load ptr, ptr %6, align 8
  %42 = call noundef ptr @_ZN14JfrJavaSupport10new_stringEPKcP10JavaThread(ptr noundef %40, ptr noundef %41)
  store ptr %42, ptr %9, align 8
  %43 = load ptr, ptr %6, align 8
  %44 = call noundef zeroext i1 @_ZNK12ThreadShadow21has_pending_exceptionEv(ptr noundef nonnull align 8 dereferenceable(28) %43)
  br i1 %44, label %45, label %46

45:                                               ; preds = %38
  br label %87

46:                                               ; preds = %38
  store ptr null, ptr %10, align 8
  %47 = load i32, ptr %5, align 4
  %48 = icmp eq i32 %47, 1
  br i1 %48, label %49, label %56

49:                                               ; preds = %46
  %50 = load ptr, ptr %6, align 8
  %51 = call noundef ptr @_ZN14JfrJavaSupport10new_stringEPKcP10JavaThread(ptr noundef @.str.6, ptr noundef %50)
  store ptr %51, ptr %10, align 8
  %52 = load ptr, ptr %6, align 8
  %53 = call noundef zeroext i1 @_ZNK12ThreadShadow21has_pending_exceptionEv(ptr noundef nonnull align 8 dereferenceable(28) %52)
  br i1 %53, label %54, label %55

54:                                               ; preds = %49
  br label %87

55:                                               ; preds = %49
  br label %56

56:                                               ; preds = %55, %46
  %57 = load i32, ptr %5, align 4
  %58 = icmp eq i32 %57, 4
  br i1 %58, label %59, label %66

59:                                               ; preds = %56
  %60 = load ptr, ptr %6, align 8
  %61 = call noundef ptr @_ZN14JfrJavaSupport10new_stringEPKcP10JavaThread(ptr noundef @.str.7, ptr noundef %60)
  store ptr %61, ptr %10, align 8
  %62 = load ptr, ptr %6, align 8
  %63 = call noundef zeroext i1 @_ZNK12ThreadShadow21has_pending_exceptionEv(ptr noundef nonnull align 8 dereferenceable(28) %62)
  br i1 %63, label %64, label %65

64:                                               ; preds = %59
  br label %87

65:                                               ; preds = %59
  br label %66

66:                                               ; preds = %65, %56
  %67 = load i32, ptr %5, align 4
  %68 = icmp eq i32 %67, 2
  br i1 %68, label %69, label %76

69:                                               ; preds = %66
  %70 = load ptr, ptr %6, align 8
  %71 = call noundef ptr @_ZN14JfrJavaSupport10new_stringEPKcP10JavaThread(ptr noundef @.str.8, ptr noundef %70)
  store ptr %71, ptr %10, align 8
  %72 = load ptr, ptr %6, align 8
  %73 = call noundef zeroext i1 @_ZNK12ThreadShadow21has_pending_exceptionEv(ptr noundef nonnull align 8 dereferenceable(28) %72)
  br i1 %73, label %74, label %75

74:                                               ; preds = %69
  br label %87

75:                                               ; preds = %69
  br label %76

76:                                               ; preds = %75, %66
  %77 = load ptr, ptr %10, align 8
  call void @_ZN16JfrJavaArguments12push_jobjectEP8_jobject(ptr noundef nonnull align 8 dereferenceable(300) %8, ptr noundef %77)
  %78 = load ptr, ptr %9, align 8
  call void @_ZN16JfrJavaArguments12push_jobjectEP8_jobject(ptr noundef nonnull align 8 dereferenceable(300) %8, ptr noundef %78)
  %79 = getelementptr inbounds %class.JfrDCmd, ptr %11, i32 0, i32 4
  %80 = load i8, ptr %79, align 4
  %81 = sext i8 %80 to i32
  call void @_ZN16JfrJavaArguments8push_intEi(ptr noundef nonnull align 8 dereferenceable(300) %8, i32 noundef %81)
  %82 = load ptr, ptr %6, align 8
  call void @_ZNK7JfrDCmd6invokeER16JfrJavaArgumentsP10JavaThread(ptr noundef nonnull align 8 dereferenceable(37) %11, ptr noundef nonnull align 8 dereferenceable(300) %8, ptr noundef %82)
  %83 = call noundef ptr @_ZNK4DCmd6outputEv(ptr noundef nonnull align 8 dereferenceable(17) %11)
  %84 = call noundef ptr @_ZNK9JavaValue7get_oopEv(ptr noundef nonnull align 8 dereferenceable(16) %7)
  %85 = load i32, ptr %5, align 4
  %86 = load ptr, ptr %6, align 8
  call void @_ZL18handle_dcmd_resultP12outputStreamP7oopDesc10DCmdSourceP10JavaThread(ptr noundef %83, ptr noundef %84, i32 noundef %85, ptr noundef %86)
  br label %87

87:                                               ; preds = %76, %74, %64, %54, %45, %37, %15
  ret void
}