; Function Attrs: mustprogress nounwind uwtable
define hidden void @_ZN7JfrDCmd7executeE10DCmdSourceP10JavaThread(ptr noundef nonnull align 8 dereferenceable(37) %0, i32 noundef %1, ptr noundef %2) unnamed_addr #0 align 2 {
  %4 = alloca %class.JavaValue, align 8
  %5 = alloca %class.JfrJavaArguments, align 8
  %6 = alloca %class.JavaValue, align 8
  %7 = alloca %class.JfrJavaArguments, align 8
  %8 = getelementptr inbounds i8, ptr %0, i64 8
  %9 = load ptr, ptr %8, align 8
  %10 = tail call fastcc noundef zeroext i1 @_ZL13invalid_stateP12outputStreamP10JavaThread(ptr noundef %9, ptr noundef %2)
  br i1 %10, label %58, label %11

11:                                               ; preds = %3
  %12 = icmp eq i32 %1, 1
  br i1 %12, label %13, label %29

13:                                               ; preds = %11
  %14 = getelementptr inbounds i8, ptr %0, i64 24
  %15 = load ptr, ptr %14, align 8
  %.not = icmp eq ptr %15, null
  br i1 %.not, label %29, label %16

16:                                               ; preds = %13
  %17 = tail call i32 @strcmp(ptr noundef nonnull dereferenceable(1) %15, ptr noundef nonnull dereferenceable(5) @.str) #14
  %18 = icmp eq i32 %17, 0
  br i1 %18, label %19, label %29

19:                                               ; preds = %16
  call void @llvm.lifetime.start.p0(i64 16, ptr nonnull %4)
  call void @llvm.lifetime.start.p0(i64 304, ptr nonnull %5)
  %20 = tail call align 8 ptr @llvm.threadlocal.address.p0(ptr align 8 @_ZN6Thread12_thr_currentE)
  %21 = load ptr, ptr %20, align 8
  store i8 12, ptr %4, align 8
  %22 = load ptr, ptr %0, align 8
  %23 = getelementptr inbounds i8, ptr %22, i64 56
  %24 = load ptr, ptr %23, align 8
  %25 = tail call noundef ptr %24(ptr noundef nonnull align 8 dereferenceable(37) %0) #13
  call void @_ZN16JfrJavaArgumentsC1EP9JavaValuePKcS3_S3_P10JavaThread(ptr noundef nonnull align 8 dereferenceable(300) %5, ptr noundef nonnull %4, ptr noundef %25, ptr noundef nonnull @.str.4, ptr noundef nonnull @_ZZNK7JfrDCmd15print_java_helpEPKcE9signature, ptr noundef %21) #13
  call void @_ZNK7JfrDCmd6invokeER16JfrJavaArgumentsP10JavaThread(ptr noundef nonnull align 8 dereferenceable(37) %0, ptr noundef nonnull align 8 dereferenceable(300) %5, ptr noundef %21)
  %26 = load ptr, ptr %8, align 8
  %27 = getelementptr inbounds i8, ptr %4, i64 8
  %28 = load ptr, ptr %27, align 8
  call fastcc void @_ZL18handle_dcmd_resultP12outputStreamP7oopDesc10DCmdSourceP10JavaThread(ptr noundef %26, ptr noundef %28, i32 noundef 4, ptr noundef %21)
  call void @llvm.lifetime.end.p0(i64 16, ptr nonnull %4)
  call void @llvm.lifetime.end.p0(i64 304, ptr nonnull %5)
  call void @_Z7vm_exiti(i32 noundef 0) #13
  br label %29

29:                                               ; preds = %19, %16, %13, %11
  store i8 12, ptr %6, align 8
  %30 = load ptr, ptr %0, align 8
  %31 = getelementptr inbounds i8, ptr %30, i64 56
  %32 = load ptr, ptr %31, align 8
  %33 = call noundef ptr %32(ptr noundef nonnull align 8 dereferenceable(37) %0) #13
  call void @_ZN16JfrJavaArgumentsC1EP9JavaValuePKcS3_S3_P10JavaThread(ptr noundef nonnull align 8 dereferenceable(300) %7, ptr noundef nonnull %6, ptr noundef %33, ptr noundef nonnull @.str.5, ptr noundef nonnull @_ZZN7JfrDCmd7executeE10DCmdSourceP10JavaThreadE9signature, ptr noundef %2) #13
  %34 = getelementptr inbounds i8, ptr %2, i64 8
  %35 = load ptr, ptr %34, align 8
  %.not24 = icmp eq ptr %35, null
  br i1 %.not24, label %36, label %58

36:                                               ; preds = %29
  %37 = getelementptr inbounds i8, ptr %0, i64 24
  %38 = load ptr, ptr %37, align 8
  %39 = call noundef ptr @_ZN14JfrJavaSupport10new_stringEPKcP10JavaThread(ptr noundef %38, ptr noundef nonnull %2) #13
  %40 = load ptr, ptr %34, align 8
  %.not25 = icmp eq ptr %40, null
  br i1 %.not25, label %41, label %58

41:                                               ; preds = %36
  br i1 %12, label %42, label %45

42:                                               ; preds = %41
  %43 = call noundef ptr @_ZN14JfrJavaSupport10new_stringEPKcP10JavaThread(ptr noundef nonnull @.str.6, ptr noundef nonnull %2) #13
  %44 = load ptr, ptr %34, align 8
  %.not28 = icmp eq ptr %44, null
  br i1 %.not28, label %.thread22, label %58

45:                                               ; preds = %41
  switch i32 %1, label %.thread22 [
    i32 4, label %46
    i32 2, label %49
  ]

46:                                               ; preds = %45
  %47 = call noundef ptr @_ZN14JfrJavaSupport10new_stringEPKcP10JavaThread(ptr noundef nonnull @.str.7, ptr noundef nonnull %2) #13
  %48 = load ptr, ptr %34, align 8
  %.not27 = icmp eq ptr %48, null
  br i1 %.not27, label %.thread22, label %58

49:                                               ; preds = %45
  %50 = call noundef ptr @_ZN14JfrJavaSupport10new_stringEPKcP10JavaThread(ptr noundef nonnull @.str.8, ptr noundef nonnull %2) #13
  %51 = load ptr, ptr %34, align 8
  %.not26 = icmp eq ptr %51, null
  br i1 %.not26, label %.thread22, label %58

.thread22:                                        ; preds = %45, %42, %46, %49
  %.2 = phi ptr [ %50, %49 ], [ %47, %46 ], [ %43, %42 ], [ null, %45 ]
  call void @_ZN16JfrJavaArguments12push_jobjectEP8_jobject(ptr noundef nonnull align 8 dereferenceable(300) %7, ptr noundef %.2) #13
  call void @_ZN16JfrJavaArguments12push_jobjectEP8_jobject(ptr noundef nonnull align 8 dereferenceable(300) %7, ptr noundef %39) #13
  %52 = getelementptr inbounds i8, ptr %0, i64 36
  %53 = load i8, ptr %52, align 4
  %54 = sext i8 %53 to i32
  call void @_ZN16JfrJavaArguments8push_intEi(ptr noundef nonnull align 8 dereferenceable(300) %7, i32 noundef %54) #13
  call void @_ZNK7JfrDCmd6invokeER16JfrJavaArgumentsP10JavaThread(ptr noundef nonnull align 8 dereferenceable(37) %0, ptr noundef nonnull align 8 dereferenceable(300) %7, ptr noundef nonnull %2)
  %55 = load ptr, ptr %8, align 8
  %56 = getelementptr inbounds i8, ptr %6, i64 8
  %57 = load ptr, ptr %56, align 8
  call fastcc void @_ZL18handle_dcmd_resultP12outputStreamP7oopDesc10DCmdSourceP10JavaThread(ptr noundef %55, ptr noundef %57, i32 noundef %1, ptr noundef nonnull %2)
  br label %58

58:                                               ; preds = %49, %46, %42, %36, %29, %3, %.thread22
  ret void
}